; Function Attrs: mustprogress nofree norecurse nosync nounwind willreturn memory(argmem: readwrite) uwtable
define void @EVP_PKEY_meth_get0_info(ptr noundef writeonly captures(address_is_null) %0, ptr noundef writeonly captures(address_is_null) %1, ptr noundef readonly captures(none) %2) local_unnamed_addr #4 {
  %.not = icmp eq ptr %0, null
  br i1 %.not, label %6, label %4

4:                                                ; preds = %3
  %5 = load i32, ptr %2, align 8, !tbaa !8
  store i32 %5, ptr %0, align 4, !tbaa !63
  br label %6

6:                                                ; preds = %4, %3
  %.not7 = icmp eq ptr %1, null
  br i1 %.not7, label %10, label %7

7:                                                ; preds = %6
  %8 = getelementptr inbounds nuw i8, ptr %2, i64 4
  %9 = load i32, ptr %8, align 4, !tbaa !14
  store i32 %9, ptr %1, align 4, !tbaa !63
  br label %10

10:                                               ; preds = %7, %6
  ret void
}